target datalayout = "e-m:e-p270:32:32-p271:32:32-p272:64:64-i64:64-i128:128-f80:128-n8:16:32:64-S128"
target triple = "x86_64-unknown-linux-gnu"

%class.btSimpleDynamicsWorld = type <{ %class.btDynamicsWorld, ptr, i8, [3 x i8], %class.btVector3, [4 x i8] }>
%class.btDynamicsWorld = type { %class.btCollisionWorld.base, ptr, ptr, ptr, %struct.btContactSolverInfo }
%class.btCollisionWorld.base = type <{ ptr, %class.btAlignedObjectArray, ptr, %struct.btDispatcherInfo, ptr, ptr, i8 }>
%class.btAlignedObjectArray = type <{ %class.btAlignedAllocator, [3 x i8], i32, i32, [4 x i8], ptr, i8, [7 x i8] }>
%class.btAlignedAllocator = type { i8 }
%struct.btDispatcherInfo = type <{ float, i32, i32, float, i8, [7 x i8], ptr, i8, i8, i8, i8, float, i8, [3 x i8], float, i8, [7 x i8] }>
%struct.btContactSolverInfo = type { %struct.btContactSolverInfoData }
%struct.btContactSolverInfoData = type { float, float, float, float, float, i32, float, float, float, float, float, float, float, float, float, float, i32, float, float, float, float, float, i32, i32, i32, float, float, float, float, i8, i8, i32, i32 }
%class.btVector3 = type { [4 x float] }

; Function Attrs: mustprogress nounwind uwtable
define linkonce_odr dso_local void @_ZN19btContactSolverInfoC2Ev(ptr noundef nonnull align 4 dereferenceable(128) %this) unnamed_addr #1 comdat align 2 {
entry:
  %this.addr = alloca ptr, align 8
  store ptr %this, ptr %this.addr, align 8
  %this1 = load ptr, ptr %this.addr, align 8
  %m_tau = getelementptr inbounds %struct.btContactSolverInfoData, ptr %this1, i32 0, i32 0
  store float 0x3FE3333340000000, ptr %m_tau, align 4
  %m_damping = getelementptr inbounds %struct.btContactSolverInfoData, ptr %this1, i32 0, i32 1
  store float 1.000000e+00, ptr %m_damping, align 4
  %m_friction = getelementptr inbounds %struct.btContactSolverInfoData, ptr %this1, i32 0, i32 2
  store float 0x3FD3333340000000, ptr %m_friction, align 4
  %m_timeStep = getelementptr inbounds %struct.btContactSolverInfoData, ptr %this1, i32 0, i32 3
  store float 0x3F91111120000000, ptr %m_timeStep, align 4
  %m_restitution = getelementptr inbounds %struct.btContactSolverInfoData, ptr %this1, i32 0, i32 4
  store float 0.000000e+00, ptr %m_restitution, align 4
  %m_maxErrorReduction = getelementptr inbounds %struct.btContactSolverInfoData, ptr %this1, i32 0, i32 6
  store float 2.000000e+01, ptr %m_maxErrorReduction, align 4
  %m_numIterations = getelementptr inbounds %struct.btContactSolverInfoData, ptr %this1, i32 0, i32 5
  store i32 10, ptr %m_numIterations, align 4
  %m_erp = getelementptr inbounds %struct.btContactSolverInfoData, ptr %this1, i32 0, i32 8
  store float 0x3FC99999A0000000, ptr %m_erp, align 4
  %m_erp2 = getelementptr inbounds %struct.btContactSolverInfoData, ptr %this1, i32 0, i32 9
  store float 0x3FC99999A0000000, ptr %m_erp2, align 4
  %m_deformable_erp = getelementptr inbounds %struct.btContactSolverInfoData, ptr %this1, i32 0, i32 10
  store float 0x3FAEB851E0000000, ptr %m_deformable_erp, align 4
  %m_deformable_cfm = getelementptr inbounds %struct.btContactSolverInfoData, ptr %this1, i32 0, i32 11
  store float 0x3F847AE140000000, ptr %m_deformable_cfm, align 4
  %m_deformable_maxErrorReduction = getelementptr inbounds %struct.btContactSolverInfoData, ptr %this1, i32 0, i32 12
  store float 0x3FB99999A0000000, ptr %m_deformable_maxErrorReduction, align 4
  %m_globalCfm = getelementptr inbounds %struct.btContactSolverInfoData, ptr %this1, i32 0, i32 13
  store float 0.000000e+00, ptr %m_globalCfm, align 4
  %m_frictionERP = getelementptr inbounds %struct.btContactSolverInfoData, ptr %this1, i32 0, i32 14
  store float 0x3FC99999A0000000, ptr %m_frictionERP, align 4
  %m_frictionCFM = getelementptr inbounds %struct.btContactSolverInfoData, ptr %this1, i32 0, i32 15
  store float 0.000000e+00, ptr %m_frictionCFM, align 4
  %m_sor = getelementptr inbounds %struct.btContactSolverInfoData, ptr %this1, i32 0, i32 7
  store float 1.000000e+00, ptr %m_sor, align 4
  %m_splitImpulse = getelementptr inbounds %struct.btContactSolverInfoData, ptr %this1, i32 0, i32 16
  store i32 1, ptr %m_splitImpulse, align 4
  %m_splitImpulsePenetrationThreshold = getelementptr inbounds %struct.btContactSolverInfoData, ptr %this1, i32 0, i32 17
  store float 0xBFA47AE140000000, ptr %m_splitImpulsePenetrationThreshold, align 4
  %m_splitImpulseTurnErp = getelementptr inbounds %struct.btContactSolverInfoData, ptr %this1, i32 0, i32 18
  store float 0x3FB99999A0000000, ptr %m_splitImpulseTurnErp, align 4
  %m_linearSlop = getelementptr inbounds %struct.btContactSolverInfoData, ptr %this1, i32 0, i32 19
  store float 0.000000e+00, ptr %m_linearSlop, align 4
  %m_warmstartingFactor = getelementptr inbounds %struct.btContactSolverInfoData, ptr %this1, i32 0, i32 20
  store float 0x3FEB333340000000, ptr %m_warmstartingFactor, align 4
  %m_articulatedWarmstartingFactor = getelementptr inbounds %struct.btContactSolverInfoData, ptr %this1, i32 0, i32 21
  store float 0x3FEB333340000000, ptr %m_articulatedWarmstartingFactor, align 4
  %m_solverMode = getelementptr inbounds %struct.btContactSolverInfoData, ptr %this1, i32 0, i32 22
  store i32 260, ptr %m_solverMode, align 4
  %m_restingContactRestitutionThreshold = getelementptr inbounds %struct.btContactSolverInfoData, ptr %this1, i32 0, i32 23
  store i32 2, ptr %m_restingContactRestitutionThreshold, align 4
  %m_minimumSolverBatchSize = getelementptr inbounds %struct.btContactSolverInfoData, ptr %this1, i32 0, i32 24
  store i32 128, ptr %m_minimumSolverBatchSize, align 4
  %m_maxGyroscopicForce = getelementptr inbounds %struct.btContactSolverInfoData, ptr %this1, i32 0, i32 25
  store float 1.000000e+02, ptr %m_maxGyroscopicForce, align 4
  %m_singleAxisRollingFrictionThreshold = getelementptr inbounds %struct.btContactSolverInfoData, ptr %this1, i32 0, i32 26
  store float 0x46293E5940000000, ptr %m_singleAxisRollingFrictionThreshold, align 4
  %m_leastSquaresResidualThreshold = getelementptr inbounds %struct.btContactSolverInfoData, ptr %this1, i32 0, i32 27
  store float 0.000000e+00, ptr %m_leastSquaresResidualThreshold, align 4
  %m_restitutionVelocityThreshold = getelementptr inbounds %struct.btContactSolverInfoData, ptr %this1, i32 0, i32 28
  store float 0x3FC99999A0000000, ptr %m_restitutionVelocityThreshold, align 4
  %m_jointFeedbackInWorldSpace = getelementptr inbounds %struct.btContactSolverInfoData, ptr %this1, i32 0, i32 29
  store i8 0, ptr %m_jointFeedbackInWorldSpace, align 4
  %m_jointFeedbackInJointFrame = getelementptr inbounds %struct.btContactSolverInfoData, ptr %this1, i32 0, i32 30
  store i8 0, ptr %m_jointFeedbackInJointFrame, align 1
  %m_reportSolverAnalytics = getelementptr inbounds %struct.btContactSolverInfoData, ptr %this1, i32 0, i32 31
  store i32 0, ptr %m_reportSolverAnalytics, align 4
  %m_numNonContactInnerIterations = getelementptr inbounds %struct.btContactSolverInfoData, ptr %this1, i32 0, i32 32
  store i32 1, ptr %m_numNonContactInnerIterations, align 4
  ret void
}

; Function Attrs: mustprogress nounwind uwtable
define linkonce_odr dso_local void @_ZN15btDynamicsWorldD2Ev(ptr noundef nonnull align 8 dereferenceable(280) %this) unnamed_addr #1 comdat align 2 {
entry:
  %this.addr = alloca ptr, align 8
  store ptr %this, ptr %this.addr, align 8
  %this1 = load ptr, ptr %this.addr, align 8
  call void @_ZN16btCollisionWorldD2Ev(ptr noundef nonnull align 8 dereferenceable(121) %this1) #9
  ret void
}

; Function Attrs: mustprogress nounwind uwtable
define linkonce_odr dso_local void @_ZN9btVector3C2ERKfS1_S1_(ptr noundef nonnull align 4 dereferenceable(16) %this, ptr noundef nonnull align 4 dereferenceable(4) %_x, ptr noundef nonnull align 4 dereferenceable(4) %_y, ptr noundef nonnull align 4 dereferenceable(4) %_z) unnamed_addr #1 comdat align 2 {
entry:
  %this.addr = alloca ptr, align 8
  %_x.addr = alloca ptr, align 8
  %_y.addr = alloca ptr, align 8
  %_z.addr = alloca ptr, align 8
  store ptr %this, ptr %this.addr, align 8
  store ptr %_x, ptr %_x.addr, align 8
  store ptr %_y, ptr %_y.addr, align 8
  store ptr %_z, ptr %_z.addr, align 8
  %this1 = load ptr, ptr %this.addr, align 8
  %0 = load ptr, ptr %_x.addr, align 8
  %1 = load float, ptr %0, align 4
  %m_floats = getelementptr inbounds %class.btVector3, ptr %this1, i32 0, i32 0
  %arrayidx = getelementptr inbounds [4 x float], ptr %m_floats, i64 0, i64 0
  store float %1, ptr %arrayidx, align 4
  %2 = load ptr, ptr %_y.addr, align 8
  %3 = load float, ptr %2, align 4
  %m_floats2 = getelementptr inbounds %class.btVector3, ptr %this1, i32 0, i32 0
  %arrayidx3 = getelementptr inbounds [4 x float], ptr %m_floats2, i64 0, i64 1
  store float %3, ptr %arrayidx3, align 4
  %4 = load ptr, ptr %_z.addr, align 8
  %5 = load float, ptr %4, align 4
  %m_floats4 = getelementptr inbounds %class.btVector3, ptr %this1, i32 0, i32 0
  %arrayidx5 = getelementptr inbounds [4 x float], ptr %m_floats4, i64 0, i64 2
  store float %5, ptr %arrayidx5, align 4
  %m_floats6 = getelementptr inbounds %class.btVector3, ptr %this1, i32 0, i32 0
  %arrayidx7 = getelementptr inbounds [4 x float], ptr %m_floats6, i64 0, i64 3
  store float 0.000000e+00, ptr %arrayidx7, align 4
  ret void
}

; Function Attrs: mustprogress uwtable
define linkonce_odr dso_local void @_ZN15btDynamicsWorldC2EP12btDispatcherP21btBroadphaseInterfaceP24btCollisionConfiguration(ptr noundef nonnull align 8 dereferenceable(280) %this, ptr noundef %dispatcher, ptr noundef %broadphase, ptr noundef %collisionConfiguration) unnamed_addr #2 comdat align 2 personality ptr @__gxx_personality_v0 {
entry:
  %this.addr = alloca ptr, align 8
  %dispatcher.addr = alloca ptr, align 8
  %broadphase.addr = alloca ptr, align 8
  %collisionConfiguration.addr = alloca ptr, align 8
  %exn.slot = alloca ptr, align 8
  %ehselector.slot = alloca i32, align 4
  store ptr %this, ptr %this.addr, align 8
  store ptr %dispatcher, ptr %dispatcher.addr, align 8
  store ptr %broadphase, ptr %broadphase.addr, align 8
  store ptr %collisionConfiguration, ptr %collisionConfiguration.addr, align 8
  %this1 = load ptr, ptr %this.addr, align 8
  %0 = load ptr, ptr %dispatcher.addr, align 8
  %1 = load ptr, ptr %broadphase.addr, align 8
  %2 = load ptr, ptr %collisionConfiguration.addr, align 8
  call void @_ZN16btCollisionWorldC2EP12btDispatcherP21btBroadphaseInterfaceP24btCollisionConfiguration(ptr noundef nonnull align 8 dereferenceable(121) %this1, ptr noundef %0, ptr noundef %1, ptr noundef %2)
  store ptr getelementptr inbounds ({ [38 x ptr] }, ptr @_ZTV15btDynamicsWorld, i32 0, i32 0, i32 2), ptr %this1, align 8
  %m_internalTickCallback = getelementptr inbounds %class.btDynamicsWorld, ptr %this1, i32 0, i32 1
  store ptr null, ptr %m_internalTickCallback, align 8
  %m_internalPreTickCallback = getelementptr inbounds %class.btDynamicsWorld, ptr %this1, i32 0, i32 2
  store ptr null, ptr %m_internalPreTickCallback, align 8
  %m_worldUserInfo = getelementptr inbounds %class.btDynamicsWorld, ptr %this1, i32 0, i32 3
  store ptr null, ptr %m_worldUserInfo, align 8
  %m_solverInfo = getelementptr inbounds %class.btDynamicsWorld, ptr %this1, i32 0, i32 4
  invoke void @_ZN19btContactSolverInfoC2Ev(ptr noundef nonnull align 4 dereferenceable(128) %m_solverInfo)
          to label %invoke.cont unwind label %lpad

invoke.cont:                                      ; preds = %entry
  ret void

lpad:                                             ; preds = %entry
  %3 = landingpad { ptr, i32 }
          cleanup
  %4 = extractvalue { ptr, i32 } %3, 0
  store ptr %4, ptr %exn.slot, align 8
  %5 = extractvalue { ptr, i32 } %3, 1
  store i32 %5, ptr %ehselector.slot, align 4
  call void @_ZN16btCollisionWorldD2Ev(ptr noundef nonnull align 8 dereferenceable(121) %this1) #9
  br label %eh.resume

eh.resume:                                        ; preds = %lpad
  %exn = load ptr, ptr %exn.slot, align 8
  %sel = load i32, ptr %ehselector.slot, align 4
  %lpad.val = insertvalue { ptr, i32 } poison, ptr %exn, 0
  %lpad.val2 = insertvalue { ptr, i32 } %lpad.val, i32 %sel, 1
  resume { ptr, i32 } %lpad.val2
}

; Function Attrs: mustprogress uwtable
define dso_local void @_ZN21btSimpleDynamicsWorldC2EP12btDispatcherP21btBroadphaseInterfaceP18btConstraintSolverP24btCollisionConfiguration(ptr noundef nonnull align 8 dereferenceable(308) %this, ptr noundef %dispatcher, ptr noundef %pairCache, ptr noundef %constraintSolver, ptr noundef %collisionConfiguration) unnamed_addr #2 align 2 personality ptr @__gxx_personality_v0 {
entry:
  %this.addr = alloca ptr, align 8
  %dispatcher.addr = alloca ptr, align 8
  %pairCache.addr = alloca ptr, align 8
  %constraintSolver.addr = alloca ptr, align 8
  %collisionConfiguration.addr = alloca ptr, align 8
  %ref.tmp = alloca float, align 4
  %ref.tmp2 = alloca float, align 4
  %ref.tmp3 = alloca float, align 4
  %exn.slot = alloca ptr, align 8
  %ehselector.slot = alloca i32, align 4
  store ptr %this, ptr %this.addr, align 8
  store ptr %dispatcher, ptr %dispatcher.addr, align 8
  store ptr %pairCache, ptr %pairCache.addr, align 8
  store ptr %constraintSolver, ptr %constraintSolver.addr, align 8
  store ptr %collisionConfiguration, ptr %collisionConfiguration.addr, align 8
  %this1 = load ptr, ptr %this.addr, align 8
  %0 = load ptr, ptr %dispatcher.addr, align 8
  %1 = load ptr, ptr %pairCache.addr, align 8
  %2 = load ptr, ptr %collisionConfiguration.addr, align 8
  call void @_ZN15btDynamicsWorldC2EP12btDispatcherP21btBroadphaseInterfaceP24btCollisionConfiguration(ptr noundef nonnull align 8 dereferenceable(280) %this1, ptr noundef %0, ptr noundef %1, ptr noundef %2)
  store ptr getelementptr inbounds ({ [38 x ptr] }, ptr @_ZTV21btSimpleDynamicsWorld, i32 0, i32 0, i32 2), ptr %this1, align 8
  %m_constraintSolver = getelementptr inbounds %class.btSimpleDynamicsWorld, ptr %this1, i32 0, i32 1
  %3 = load ptr, ptr %constraintSolver.addr, align 8
  store ptr %3, ptr %m_constraintSolver, align 8
  %m_ownsConstraintSolver = getelementptr inbounds %class.btSimpleDynamicsWorld, ptr %this1, i32 0, i32 2
  store i8 0, ptr %m_ownsConstraintSolver, align 8
  %m_gravity = getelementptr inbounds %class.btSimpleDynamicsWorld, ptr %this1, i32 0, i32 4
  store float 0.000000e+00, ptr %ref.tmp, align 4
  store float 0.000000e+00, ptr %ref.tmp2, align 4
  store float -1.000000e+01, ptr %ref.tmp3, align 4
  invoke void @_ZN9btVector3C2ERKfS1_S1_(ptr noundef nonnull align 4 dereferenceable(16) %m_gravity, ptr noundef nonnull align 4 dereferenceable(4) %ref.tmp, ptr noundef nonnull align 4 dereferenceable(4) %ref.tmp2, ptr noundef nonnull align 4 dereferenceable(4) %ref.tmp3)
          to label %invoke.cont unwind label %lpad

invoke.cont:                                      ; preds = %entry
  ret void

lpad:                                             ; preds = %entry
  %4 = landingpad { ptr, i32 }
          cleanup
  %5 = extractvalue { ptr, i32 } %4, 0
  store ptr %5, ptr %exn.slot, align 8
  %6 = extractvalue { ptr, i32 } %4, 1
  store i32 %6, ptr %ehselector.slot, align 4
  call void @_ZN15btDynamicsWorldD2Ev(ptr noundef nonnull align 8 dereferenceable(280) %this1) #9
  br label %eh.resume

eh.resume:                                        ; preds = %lpad
  %exn = load ptr, ptr %exn.slot, align 8
  %sel = load i32, ptr %ehselector.slot, align 4
  %lpad.val = insertvalue { ptr, i32 } poison, ptr %exn, 0
  %lpad.val4 = insertvalue { ptr, i32 } %lpad.val, i32 %sel, 1
  resume { ptr, i32 } %lpad.val4
}