; Function Attrs: mustprogress uwtable
define dso_local void @_ZN21btSimpleDynamicsWorldC2EP12btDispatcherP21btBroadphaseInterfaceP18btConstraintSolverP24btCollisionConfiguration(ptr noundef nonnull align 8 dereferenceable(308) %this, ptr noundef %dispatcher, ptr noundef %pairCache, ptr noundef %constraintSolver, ptr noundef %collisionConfiguration) unnamed_addr #1 align 2 personality ptr @__gxx_personality_v0 {
entry:
  tail call void @_ZN16btCollisionWorldC2EP12btDispatcherP21btBroadphaseInterfaceP24btCollisionConfiguration(ptr noundef nonnull align 8 dereferenceable(121) %this, ptr noundef %dispatcher, ptr noundef %pairCache, ptr noundef %collisionConfiguration)
  %m_internalTickCallback.i = getelementptr inbounds i8, ptr %this, i64 128
  %m_solverInfo.i = getelementptr inbounds i8, ptr %this, i64 152
  tail call void @llvm.memset.p0.i64(ptr noundef nonnull align 8 dereferenceable(24) %m_internalTickCallback.i, i8 0, i64 24, i1 false)
  store <4 x float> <float 0x3FE3333340000000, float 1.000000e+00, float 0x3FD3333340000000, float 0x3F91111120000000>, ptr %m_solverInfo.i, align 8
  %m_restitution.i.i = getelementptr inbounds i8, ptr %this, i64 168
  store float 0.000000e+00, ptr %m_restitution.i.i, align 8
  %m_maxErrorReduction.i.i = getelementptr inbounds i8, ptr %this, i64 176
  %m_numIterations.i.i = getelementptr inbounds i8, ptr %this, i64 172
  store i32 10, ptr %m_numIterations.i.i, align 4
  %m_deformable_erp.i.i = getelementptr inbounds i8, ptr %this, i64 192
  store <4 x float> <float 0x3FAEB851E0000000, float 0x3F847AE140000000, float 0x3FB99999A0000000, float 0.000000e+00>, ptr %m_deformable_erp.i.i, align 8
  %m_frictionERP.i.i = getelementptr inbounds i8, ptr %this, i64 208
  store <2 x float> <float 0x3FC99999A0000000, float 0.000000e+00>, ptr %m_frictionERP.i.i, align 8
  store <4 x float> <float 2.000000e+01, float 1.000000e+00, float 0x3FC99999A0000000, float 0x3FC99999A0000000>, ptr %m_maxErrorReduction.i.i, align 8
  %m_splitImpulse.i.i = getelementptr inbounds i8, ptr %this, i64 216
  store i32 1, ptr %m_splitImpulse.i.i, align 8
  %m_splitImpulsePenetrationThreshold.i.i = getelementptr inbounds i8, ptr %this, i64 220
  store <4 x float> <float 0xBFA47AE140000000, float 0x3FB99999A0000000, float 0.000000e+00, float 0x3FEB333340000000>, ptr %m_splitImpulsePenetrationThreshold.i.i, align 4
  %m_articulatedWarmstartingFactor.i.i = getelementptr inbounds i8, ptr %this, i64 236
  store float 0x3FEB333340000000, ptr %m_articulatedWarmstartingFactor.i.i, align 4
  %m_solverMode.i.i = getelementptr inbounds i8, ptr %this, i64 240
  store i32 260, ptr %m_solverMode.i.i, align 8
  %m_restingContactRestitutionThreshold.i.i = getelementptr inbounds i8, ptr %this, i64 244
  store i32 2, ptr %m_restingContactRestitutionThreshold.i.i, align 4
  %m_minimumSolverBatchSize.i.i = getelementptr inbounds i8, ptr %this, i64 248
  store i32 128, ptr %m_minimumSolverBatchSize.i.i, align 8
  %m_maxGyroscopicForce.i.i = getelementptr inbounds i8, ptr %this, i64 252
  store <4 x float> <float 1.000000e+02, float 0x46293E5940000000, float 0.000000e+00, float 0x3FC99999A0000000>, ptr %m_maxGyroscopicForce.i.i, align 4
  %m_jointFeedbackInWorldSpace.i.i = getelementptr inbounds i8, ptr %this, i64 268
  store i8 0, ptr %m_jointFeedbackInWorldSpace.i.i, align 4
  %m_jointFeedbackInJointFrame.i.i = getelementptr inbounds i8, ptr %this, i64 269
  store i8 0, ptr %m_jointFeedbackInJointFrame.i.i, align 1
  %m_reportSolverAnalytics.i.i = getelementptr inbounds i8, ptr %this, i64 272
  store i32 0, ptr %m_reportSolverAnalytics.i.i, align 8
  %m_numNonContactInnerIterations.i.i = getelementptr inbounds i8, ptr %this, i64 276
  store i32 1, ptr %m_numNonContactInnerIterations.i.i, align 4
  store ptr getelementptr inbounds ({ [38 x ptr] }, ptr @_ZTV21btSimpleDynamicsWorld, i64 0, i32 0, i64 2), ptr %this, align 8
  %m_constraintSolver = getelementptr inbounds i8, ptr %this, i64 280
  store ptr %constraintSolver, ptr %m_constraintSolver, align 8
  %m_ownsConstraintSolver = getelementptr inbounds i8, ptr %this, i64 288
  store i8 0, ptr %m_ownsConstraintSolver, align 8
  %m_gravity = getelementptr inbounds i8, ptr %this, i64 292
  store <4 x float> <float 0.000000e+00, float 0.000000e+00, float -1.000000e+01, float 0.000000e+00>, ptr %m_gravity, align 4
  ret void
}